; Function Attrs: mustprogress uwtable
define void @_ZN8QuantLib21ProjectedCostFunctionC2ERKNS_12CostFunctionERKNS_10ProjectionE(ptr noundef nonnull align 8 dereferenceable(104) %this, ptr noundef nonnull align 8 dereferenceable(8) %costFunction, ptr noundef nonnull align 8 dereferenceable(88) %projection) unnamed_addr #0 align 2 personality ptr @__gxx_personality_v0 {
entry:
  store ptr getelementptr inbounds inrange(-16, 72) (i8, ptr @_ZTVN8QuantLib12CostFunctionE, i64 16), ptr %this, align 8, !tbaa !3
  %0 = getelementptr inbounds i8, ptr %this, i64 8
  tail call void @_ZN8QuantLib10ProjectionC2ERKS0_(ptr noundef nonnull align 8 dereferenceable(88) %0, ptr noundef nonnull align 8 dereferenceable(88) %projection)
  store ptr getelementptr inbounds inrange(-16, 72) (i8, ptr @_ZTVN8QuantLib21ProjectedCostFunctionE, i64 16), ptr %this, align 8, !tbaa !3
  store ptr getelementptr inbounds inrange(-16, 32) (i8, ptr @_ZTVN8QuantLib21ProjectedCostFunctionE, i64 104), ptr %0, align 8, !tbaa !3
  %costFunction_ = getelementptr inbounds nuw i8, ptr %this, i64 96
  store ptr %costFunction, ptr %costFunction_, align 8, !tbaa !14
  ret void
}